; Function Attrs: null_pointer_is_valid sspstrong uwtable
define internal void @ikev2_users_spir_set_cb(ptr noundef captures(none) initializes((24, 28)) %0, ptr noundef %1, i32 noundef %2, ptr readnone captures(none) %3, ptr readnone captures(none) %4) #0 {
  %.not = icmp eq i32 %2, 0
  br i1 %.not, label %9, label %6

6:                                                ; preds = %5
  %7 = zext i32 %2 to i64
  %8 = tail call ptr @g_memdup2(ptr noundef %1, i64 noundef %7) #22
  br label %9

9:                                                ; preds = %5, %6
  %10 = phi ptr [ %8, %6 ], [ null, %5 ]
  %11 = getelementptr inbounds nuw i8, ptr %0, i64 16
  %12 = load ptr, ptr %11, align 8
  tail call void @g_free(ptr noundef %12)
  store ptr %10, ptr %11, align 8
  %13 = getelementptr inbounds nuw i8, ptr %0, i64 24
  store i32 %2, ptr %13, align 8
  ret void
}